target datalayout = "e-m:e-p270:32:32-p271:32:32-p272:64:64-i64:64-i128:128-f80:128-n8:16:32:64-S128"
target triple = "x86_64-pc-linux-gnu"

%"class.ue2::CharReach" = type { %"class.ue2::bitfield" }
%"class.ue2::bitfield" = type { %"struct.std::array" }
%"struct.std::array" = type { [4 x i64] }

; Function Attrs: mustprogress nounwind uwtable
define linkonce_odr dso_local noundef nonnull align 8 dereferenceable(8) ptr @_ZNSt14__array_traitsIyLm4EE6_S_refERA4_Kym(ptr noundef nonnull align 8 dereferenceable(32) %0, i64 noundef %1) #2 comdat align 2 {
  %3 = alloca ptr, align 8
  %4 = alloca i64, align 8
  store ptr %0, ptr %3, align 8
  store i64 %1, ptr %4, align 8
  %5 = load ptr, ptr %3, align 8
  %6 = load i64, ptr %4, align 8
  %7 = getelementptr inbounds nuw [4 x i64], ptr %5, i64 0, i64 %6
  ret ptr %7
}

; Function Attrs: alwaysinline mustprogress nounwind uwtable
define internal noundef i32 @_ZL5ctz64y(i64 noundef %0) #7 {
  %2 = alloca i64, align 8
  store i64 %0, ptr %2, align 8
  %3 = load i64, ptr %2, align 8
  %4 = call i64 @llvm.cttz.i64(i64 %3, i1 true)
  %5 = trunc i64 %4 to i32
  ret i32 %5
}

; Function Attrs: mustprogress nounwind uwtable
define linkonce_odr hidden noundef i64 @_ZN3ue28bitfieldILm256EE4sizeEv() #2 comdat align 2 {
  ret i64 256
}

; Function Attrs: mustprogress nounwind uwtable
define linkonce_odr hidden noundef i64 @_ZN3ue28bitfieldILm256EE7maskbitEm(i64 noundef %0) #2 comdat align 2 {
  %2 = alloca i64, align 8
  store i64 %0, ptr %2, align 8
  %3 = load i64, ptr %2, align 8
  %4 = urem i64 %3, 64
  %5 = shl i64 1, %4
  ret i64 %5
}

; Function Attrs: mustprogress nounwind uwtable
define linkonce_odr hidden noundef i64 @_ZN3ue28bitfieldILm256EE7getwordEm(i64 noundef %0) #2 comdat align 2 {
  %2 = alloca i64, align 8
  store i64 %0, ptr %2, align 8
  %3 = load i64, ptr %2, align 8
  %4 = udiv i64 %3, 64
  ret i64 %4
}

; Function Attrs: mustprogress uwtable
define linkonce_odr hidden noundef i64 @_ZNK3ue28bitfieldILm256EE8word_ctzEm(ptr noundef nonnull align 8 dereferenceable(32) %0, i64 noundef %1) #0 comdat align 2 {
  %3 = alloca ptr, align 8
  %4 = alloca i64, align 8
  store ptr %0, ptr %3, align 8
  store i64 %1, ptr %4, align 8
  %5 = load ptr, ptr %3, align 8
  %6 = getelementptr inbounds nuw %"class.ue2::bitfield", ptr %5, i32 0, i32 0
  %7 = load i64, ptr %4, align 8
  %8 = call noundef nonnull align 8 dereferenceable(8) ptr @_ZNKSt5arrayIyLm4EEixEm(ptr noundef nonnull align 8 dereferenceable(32) %6, i64 noundef %7) #15
  %9 = load i64, ptr %8, align 8
  %10 = call noundef i32 @_ZL5ctz64y(i64 noundef %9)
  %11 = zext i32 %10 to i64
  ret i64 %11
}

; Function Attrs: mustprogress nounwind uwtable
define linkonce_odr dso_local noundef nonnull align 8 dereferenceable(8) ptr @_ZNKSt5arrayIyLm4EEixEm(ptr noundef nonnull align 8 dereferenceable(32) %0, i64 noundef %1) #2 comdat align 2 {
  %3 = alloca ptr, align 8
  %4 = alloca i64, align 8
  store ptr %0, ptr %3, align 8
  store i64 %1, ptr %4, align 8
  %5 = load ptr, ptr %3, align 8
  %6 = getelementptr inbounds nuw %"struct.std::array", ptr %5, i32 0, i32 0
  %7 = load i64, ptr %4, align 8
  %8 = call noundef nonnull align 8 dereferenceable(8) ptr @_ZNSt14__array_traitsIyLm4EE6_S_refERA4_Kym(ptr noundef nonnull align 8 dereferenceable(32) %6, i64 noundef %7) #15
  ret ptr %8
}

; Function Attrs: mustprogress nounwind willreturn memory(none) uwtable
define linkonce_odr dso_local noundef i64 @_ZNKSt5arrayIyLm4EE4sizeEv(ptr noundef nonnull align 8 dereferenceable(32) %0) #6 comdat align 2 {
  %2 = alloca ptr, align 8
  store ptr %0, ptr %2, align 8
  ret i64 4
}

; Function Attrs: mustprogress uwtable
define linkonce_odr hidden noundef i64 @_ZNK3ue28bitfieldILm256EE9find_nextEm(ptr noundef nonnull align 8 dereferenceable(32) %0, i64 noundef %1) #0 comdat align 2 {
  %3 = alloca i64, align 8
  %4 = alloca ptr, align 8
  %5 = alloca i64, align 8
  %6 = alloca i64, align 8
  %7 = alloca i64, align 8
  %8 = alloca i32, align 4
  store ptr %0, ptr %4, align 8
  store i64 %1, ptr %5, align 8
  %9 = load ptr, ptr %4, align 8
  %10 = load i64, ptr %5, align 8
  %11 = call noundef i64 @_ZN3ue28bitfieldILm256EE4sizeEv()
  %12 = icmp uge i64 %10, %11
  br i1 %12, label %13, label %14

13:                                               ; preds = %2
  store i64 256, ptr %3, align 8
  br label %67

14:                                               ; preds = %2
  call void @llvm.lifetime.start.p0(i64 8, ptr %6) #15
  %15 = load i64, ptr %5, align 8
  %16 = call noundef i64 @_ZN3ue28bitfieldILm256EE7getwordEm(i64 noundef %15)
  store i64 %16, ptr %6, align 8
  call void @llvm.lifetime.start.p0(i64 8, ptr %7) #15
  %17 = getelementptr inbounds nuw %"class.ue2::bitfield", ptr %9, i32 0, i32 0
  %18 = load i64, ptr %6, align 8
  %19 = call noundef nonnull align 8 dereferenceable(8) ptr @_ZNKSt5arrayIyLm4EEixEm(ptr noundef nonnull align 8 dereferenceable(32) %17, i64 noundef %18) #15
  %20 = load i64, ptr %19, align 8
  store i64 %20, ptr %7, align 8
  %21 = load i64, ptr %5, align 8
  %22 = urem i64 %21, 64
  %23 = icmp ne i64 %22, 63
  br i1 %23, label %24, label %41

24:                                               ; preds = %14
  %25 = load i64, ptr %5, align 8
  %26 = urem i64 %25, 64
  %27 = add i64 %26, 1
  %28 = shl i64 -1, %27
  %29 = load i64, ptr %7, align 8
  %30 = and i64 %29, %28
  store i64 %30, ptr %7, align 8
  %31 = load i64, ptr %7, align 8
  %32 = icmp ne i64 %31, 0
  br i1 %32, label %33, label %40

33:                                               ; preds = %24
  %34 = load i64, ptr %6, align 8
  %35 = mul i64 %34, 64
  %36 = load i64, ptr %7, align 8
  %37 = call noundef i32 @_ZL5ctz64y(i64 noundef %36)
  %38 = zext i32 %37 to i64
  %39 = add i64 %35, %38
  store i64 %39, ptr %3, align 8
  store i32 1, ptr %8, align 4
  br label %66

40:                                               ; preds = %24
  br label %41

41:                                               ; preds = %40, %14
  %42 = load i64, ptr %6, align 8
  %43 = add i64 %42, 1
  store i64 %43, ptr %6, align 8
  br label %44

44:                                               ; preds = %62, %41
  %45 = load i64, ptr %6, align 8
  %46 = getelementptr inbounds nuw %"class.ue2::bitfield", ptr %9, i32 0, i32 0
  %47 = call noundef i64 @_ZNKSt5arrayIyLm4EE4sizeEv(ptr noundef nonnull align 8 dereferenceable(32) %46) #17
  %48 = icmp ult i64 %45, %47
  br i1 %48, label %49, label %65

49:                                               ; preds = %44
  %50 = getelementptr inbounds nuw %"class.ue2::bitfield", ptr %9, i32 0, i32 0
  %51 = load i64, ptr %6, align 8
  %52 = call noundef nonnull align 8 dereferenceable(8) ptr @_ZNKSt5arrayIyLm4EEixEm(ptr noundef nonnull align 8 dereferenceable(32) %50, i64 noundef %51) #15
  %53 = load i64, ptr %52, align 8
  %54 = icmp ne i64 %53, 0
  br i1 %54, label %55, label %61

55:                                               ; preds = %49
  %56 = load i64, ptr %6, align 8
  %57 = mul i64 %56, 64
  %58 = load i64, ptr %6, align 8
  %59 = call noundef i64 @_ZNK3ue28bitfieldILm256EE8word_ctzEm(ptr noundef nonnull align 8 dereferenceable(32) %9, i64 noundef %58)
  %60 = add i64 %57, %59
  store i64 %60, ptr %3, align 8
  store i32 1, ptr %8, align 4
  br label %66

61:                                               ; preds = %49
  br label %62

62:                                               ; preds = %61
  %63 = load i64, ptr %6, align 8
  %64 = add i64 %63, 1
  store i64 %64, ptr %6, align 8
  br label %44, !llvm.loop !13

65:                                               ; preds = %44
  store i64 256, ptr %3, align 8
  store i32 1, ptr %8, align 4
  br label %66

66:                                               ; preds = %65, %55, %33
  call void @llvm.lifetime.end.p0(i64 8, ptr %7) #15
  call void @llvm.lifetime.end.p0(i64 8, ptr %6) #15
  br label %67

67:                                               ; preds = %66, %13
  %68 = load i64, ptr %3, align 8
  ret i64 %68
}

; Function Attrs: mustprogress nounwind uwtable
define linkonce_odr hidden noundef zeroext i1 @_ZNK3ue28bitfieldILm256EE4testEm(ptr noundef nonnull align 8 dereferenceable(32) %0, i64 noundef %1) #2 comdat align 2 {
  %3 = alloca ptr, align 8
  %4 = alloca i64, align 8
  store ptr %0, ptr %3, align 8
  store i64 %1, ptr %4, align 8
  %5 = load ptr, ptr %3, align 8
  %6 = getelementptr inbounds nuw %"class.ue2::bitfield", ptr %5, i32 0, i32 0
  %7 = load i64, ptr %4, align 8
  %8 = call noundef i64 @_ZN3ue28bitfieldILm256EE7getwordEm(i64 noundef %7)
  %9 = call noundef nonnull align 8 dereferenceable(8) ptr @_ZNKSt5arrayIyLm4EEixEm(ptr noundef nonnull align 8 dereferenceable(32) %6, i64 noundef %8) #15
  %10 = load i64, ptr %9, align 8
  %11 = load i64, ptr %4, align 8
  %12 = call noundef i64 @_ZN3ue28bitfieldILm256EE7maskbitEm(i64 noundef %11)
  %13 = and i64 %10, %12
  %14 = icmp ne i64 %13, 0
  ret i1 %14
}

; Function Attrs: mustprogress uwtable
define linkonce_odr hidden noundef i64 @_ZNK3ue28bitfieldILm256EE10find_firstEv(ptr noundef nonnull align 8 dereferenceable(32) %0) #0 comdat align 2 {
  %2 = alloca i64, align 8
  %3 = alloca ptr, align 8
  %4 = alloca i64, align 8
  %5 = alloca i32, align 4
  store ptr %0, ptr %3, align 8
  %6 = load ptr, ptr %3, align 8
  call void @llvm.lifetime.start.p0(i64 8, ptr %4) #15
  store i64 0, ptr %4, align 8
  br label %7

7:                                                ; preds = %26, %1
  %8 = load i64, ptr %4, align 8
  %9 = getelementptr inbounds nuw %"class.ue2::bitfield", ptr %6, i32 0, i32 0
  %10 = call noundef i64 @_ZNKSt5arrayIyLm4EE4sizeEv(ptr noundef nonnull align 8 dereferenceable(32) %9) #17
  %11 = icmp ult i64 %8, %10
  br i1 %11, label %13, label %12

12:                                               ; preds = %7
  store i32 2, ptr %5, align 4
  br label %29

13:                                               ; preds = %7
  %14 = getelementptr inbounds nuw %"class.ue2::bitfield", ptr %6, i32 0, i32 0
  %15 = load i64, ptr %4, align 8
  %16 = call noundef nonnull align 8 dereferenceable(8) ptr @_ZNKSt5arrayIyLm4EEixEm(ptr noundef nonnull align 8 dereferenceable(32) %14, i64 noundef %15) #15
  %17 = load i64, ptr %16, align 8
  %18 = icmp ne i64 %17, 0
  br i1 %18, label %19, label %25

19:                                               ; preds = %13
  %20 = load i64, ptr %4, align 8
  %21 = mul i64 %20, 64
  %22 = load i64, ptr %4, align 8
  %23 = call noundef i64 @_ZNK3ue28bitfieldILm256EE8word_ctzEm(ptr noundef nonnull align 8 dereferenceable(32) %6, i64 noundef %22)
  %24 = add i64 %21, %23
  store i64 %24, ptr %2, align 8
  store i32 1, ptr %5, align 4
  br label %29

25:                                               ; preds = %13
  br label %26

26:                                               ; preds = %25
  %27 = load i64, ptr %4, align 8
  %28 = add i64 %27, 1
  store i64 %28, ptr %4, align 8
  br label %7, !llvm.loop !12

29:                                               ; preds = %19, %12
  call void @llvm.lifetime.end.p0(i64 8, ptr %4) #15
  %30 = load i32, ptr %5, align 4
  switch i32 %30, label %34 [
    i32 2, label %31
    i32 1, label %32
  ]

31:                                               ; preds = %29
  store i64 256, ptr %2, align 8
  br label %32

32:                                               ; preds = %31, %29
  %33 = load i64, ptr %2, align 8
  ret i64 %33

34:                                               ; preds = %29
  unreachable
}

; Function Attrs: mustprogress uwtable
define linkonce_odr hidden noundef i64 @_ZNK3ue29CharReach9find_nextEm(ptr noundef nonnull align 8 dereferenceable(32) %0, i64 noundef %1) #0 comdat align 2 {
  %3 = alloca ptr, align 8
  %4 = alloca i64, align 8
  store ptr %0, ptr %3, align 8
  store i64 %1, ptr %4, align 8
  %5 = load ptr, ptr %3, align 8
  %6 = getelementptr inbounds nuw %"class.ue2::CharReach", ptr %5, i32 0, i32 0
  %7 = load i64, ptr %4, align 8
  %8 = call noundef i64 @_ZNK3ue28bitfieldILm256EE9find_nextEm(ptr noundef nonnull align 8 dereferenceable(32) %6, i64 noundef %7)
  ret i64 %8
}

; Function Attrs: mustprogress uwtable
define linkonce_odr hidden noundef zeroext i1 @_ZNK3ue29CharReach4testEh(ptr noundef nonnull align 8 dereferenceable(32) %0, i8 noundef zeroext %1) #0 comdat align 2 {
  %3 = alloca ptr, align 8
  %4 = alloca i8, align 1
  store ptr %0, ptr %3, align 8
  store i8 %1, ptr %4, align 1
  %5 = load ptr, ptr %3, align 8
  %6 = getelementptr inbounds nuw %"class.ue2::CharReach", ptr %5, i32 0, i32 0
  %7 = load i8, ptr %4, align 1
  %8 = zext i8 %7 to i64
  %9 = call noundef zeroext i1 @_ZNK3ue28bitfieldILm256EE4testEm(ptr noundef nonnull align 8 dereferenceable(32) %6, i64 noundef %8)
  ret i1 %9
}

; Function Attrs: mustprogress uwtable
define linkonce_odr hidden noundef i64 @_ZNK3ue29CharReach10find_firstEv(ptr noundef nonnull align 8 dereferenceable(32) %0) #0 comdat align 2 {
  %2 = alloca ptr, align 8
  store ptr %0, ptr %2, align 8
  %3 = load ptr, ptr %2, align 8
  %4 = getelementptr inbounds nuw %"class.ue2::CharReach", ptr %3, i32 0, i32 0
  %5 = call noundef i64 @_ZNK3ue28bitfieldILm256EE10find_firstEv(ptr noundef nonnull align 8 dereferenceable(32) %4)
  ret i64 %5
}

; Function Attrs: mustprogress uwtable
define hidden noundef zeroext i1 @_ZNK3ue29CharReach17isBit5InsensitiveEv(ptr noundef nonnull align 8 dereferenceable(32) %0) #0 align 2 {
  %2 = alloca i1, align 1
  %3 = alloca ptr, align 8
  %4 = alloca i64, align 8
  %5 = alloca i32, align 4
  store ptr %0, ptr %3, align 8
  %6 = load ptr, ptr %3, align 8
  call void @llvm.lifetime.start.p0(i64 8, ptr %4) #15
  %7 = call noundef i64 @_ZNK3ue29CharReach10find_firstEv(ptr noundef nonnull align 8 dereferenceable(32) %6)
  store i64 %7, ptr %4, align 8
  br label %8

8:                                                ; preds = %21, %1
  %9 = load i64, ptr %4, align 8
  %10 = icmp ne i64 %9, 256
  br i1 %10, label %12, label %11

11:                                               ; preds = %8
  store i32 2, ptr %5, align 4
  br label %24

12:                                               ; preds = %8
  %13 = load i64, ptr %4, align 8
  %14 = trunc i64 %13 to i8
  %15 = sext i8 %14 to i32
  %16 = xor i32 %15, 32
  %17 = trunc i32 %16 to i8
  %18 = call noundef zeroext i1 @_ZNK3ue29CharReach4testEh(ptr noundef nonnull align 8 dereferenceable(32) %6, i8 noundef zeroext %17)
  br i1 %18, label %20, label %19

19:                                               ; preds = %12
  store i1 false, ptr %2, align 1
  store i32 1, ptr %5, align 4
  br label %24

20:                                               ; preds = %12
  br label %21

21:                                               ; preds = %20
  %22 = load i64, ptr %4, align 8
  %23 = call noundef i64 @_ZNK3ue29CharReach9find_nextEm(ptr noundef nonnull align 8 dereferenceable(32) %6, i64 noundef %22)
  store i64 %23, ptr %4, align 8
  br label %8, !llvm.loop !7

24:                                               ; preds = %19, %11
  call void @llvm.lifetime.end.p0(i64 8, ptr %4) #15
  %25 = load i32, ptr %5, align 4
  switch i32 %25, label %29 [
    i32 2, label %26
    i32 1, label %27
  ]

26:                                               ; preds = %24
  store i1 true, ptr %2, align 1
  br label %27

27:                                               ; preds = %26, %24
  %28 = load i1, ptr %2, align 1
  ret i1 %28

29:                                               ; preds = %24
  unreachable
}