; Function Attrs: mustprogress nofree norecurse nosync nounwind willreturn memory(argmem: read) uwtable
define hidden noundef zeroext i1 @_ZNK3ue29CharReach17isBit5InsensitiveEv(ptr noundef nonnull readonly align 8 captures(none) dereferenceable(32) %0) local_unnamed_addr #2 align 2 {
  br label %2

2:                                                ; preds = %5, %1
  %.0710.i.i = phi i64 [ 0, %1 ], [ %6, %5 ]
  %3 = getelementptr inbounds nuw [4 x i64], ptr %0, i64 0, i64 %.0710.i.i
  %4 = load i64, ptr %3, align 8
  %.not.i.i = icmp eq i64 %4, 0
  br i1 %.not.i.i, label %5, label %_ZNK3ue29CharReach10find_firstEv.exit

5:                                                ; preds = %2
  %6 = add nuw nsw i64 %.0710.i.i, 1
  %exitcond.i.i = icmp eq i64 %6, 4
  br i1 %exitcond.i.i, label %._crit_edge, label %2, !llvm.loop !5

_ZNK3ue29CharReach10find_firstEv.exit:            ; preds = %2
  %7 = shl nuw nsw i64 %.0710.i.i, 6
  %8 = tail call noundef range(i64 0, 65) i64 @llvm.cttz.i64(i64 %4, i1 true)
  %9 = or disjoint i64 %8, %7
  %.not12 = icmp eq i64 %9, 256
  br i1 %.not12, label %._crit_edge, label %.lr.ph.preheader

.lr.ph.preheader:                                 ; preds = %_ZNK3ue29CharReach10find_firstEv.exit
  %10 = and i64 %.0710.i.i, 3
  %11 = getelementptr inbounds nuw [4 x i64], ptr %0, i64 0, i64 %10
  %12 = load i64, ptr %11, align 8
  %13 = xor i64 %8, 32
  %14 = shl nuw i64 1, %13
  %15 = and i64 %12, %14
  %.not8.not37 = icmp eq i64 %15, 0
  br i1 %.not8.not37, label %._crit_edge, label %.lr.ph39

.lr.ph39:                                         ; preds = %.lr.ph.preheader, %_ZNK3ue29CharReach9find_nextEm.exit
  %16 = phi i64 [ %33, %_ZNK3ue29CharReach9find_nextEm.exit ], [ %8, %.lr.ph.preheader ]
  %17 = phi i64 [ %35, %_ZNK3ue29CharReach9find_nextEm.exit ], [ %.0710.i.i, %.lr.ph.preheader ]
  %.051338 = phi i64 [ %34, %_ZNK3ue29CharReach9find_nextEm.exit ], [ %9, %.lr.ph.preheader ]
  %.not.i.i7 = icmp ugt i64 %.051338, 255
  br i1 %.not.i.i7, label %._crit_edge, label %18

18:                                               ; preds = %.lr.ph39
  %.not20.i.i = icmp eq i64 %16, 63
  br i1 %.not20.i.i, label %.preheader, label %19

.preheader:                                       ; preds = %19, %18
  br label %26

19:                                               ; preds = %18
  %20 = getelementptr inbounds nuw [4 x i64], ptr %0, i64 0, i64 %17
  %21 = load i64, ptr %20, align 8
  %22 = shl nsw i64 -2, %16
  %23 = and i64 %21, %22
  %.not21.i.i = icmp eq i64 %23, 0
  br i1 %.not21.i.i, label %.preheader, label %24

24:                                               ; preds = %19
  %25 = and i64 %.051338, 192
  br label %_ZNK3ue29CharReach9find_nextEm.exit

26:                                               ; preds = %.preheader, %28
  %.0.in.i.i = phi i64 [ %.0.i.i, %28 ], [ %17, %.preheader ]
  %27 = icmp samesign ult i64 %.0.in.i.i, 3
  br i1 %27, label %28, label %._crit_edge

28:                                               ; preds = %26
  %.0.i.i = add nuw nsw i64 %.0.in.i.i, 1
  %29 = getelementptr inbounds nuw [4 x i64], ptr %0, i64 0, i64 %.0.i.i
  %30 = load i64, ptr %29, align 8
  %.not22.i.i = icmp eq i64 %30, 0
  br i1 %.not22.i.i, label %26, label %31, !llvm.loop !7

31:                                               ; preds = %28
  %32 = shl nuw nsw i64 %.0.i.i, 6
  br label %_ZNK3ue29CharReach9find_nextEm.exit

_ZNK3ue29CharReach9find_nextEm.exit:              ; preds = %24, %31
  %.sink31 = phi i64 [ %23, %24 ], [ %30, %31 ]
  %.sink30 = phi i64 [ %25, %24 ], [ %32, %31 ]
  %33 = tail call range(i64 0, 65) i64 @llvm.cttz.i64(i64 %.sink31, i1 true)
  %34 = or disjoint i64 %33, %.sink30
  %35 = lshr exact i64 %.sink30, 6
  %36 = and i64 %35, 3
  %37 = getelementptr inbounds nuw [4 x i64], ptr %0, i64 0, i64 %36
  %38 = load i64, ptr %37, align 8
  %39 = xor i64 %33, 32
  %40 = shl nuw i64 1, %39
  %41 = and i64 %38, %40
  %.not8.not = icmp eq i64 %41, 0
  br i1 %.not8.not, label %._crit_edge, label %.lr.ph39, !llvm.loop !9

._crit_edge:                                      ; preds = %5, %_ZNK3ue29CharReach9find_nextEm.exit, %.lr.ph39, %26, %.lr.ph.preheader, %_ZNK3ue29CharReach10find_firstEv.exit
  %.not.lcssa = phi i1 [ true, %_ZNK3ue29CharReach10find_firstEv.exit ], [ false, %.lr.ph.preheader ], [ true, %26 ], [ %.not.i.i7, %.lr.ph39 ], [ %.not.i.i7, %_ZNK3ue29CharReach9find_nextEm.exit ], [ true, %5 ]
  ret i1 %.not.lcssa
}